target datalayout = "e-m:e-p270:32:32-p271:32:32-p272:64:64-i64:64-i128:128-f80:128-n8:16:32:64-S128"
target triple = "x86_64-pc-linux-gnu"

%"class.Eigen::symbolic::SymbolExpr" = type { i8 }
%"class.Eigen::symbolic::AddExpr" = type { [2 x i8] }
%"class.Eigen::internal::FixedInt" = type { i8 }
%"struct.Eigen::internal::all_t" = type { i8 }
%"class.Eigen::symbolic::ValueExpr" = type { i8 }

$_ZN5Eigen8symbolic10SymbolExprINS_8internal17symbolic_last_tagEEC2Ev = comdat any

$_ZNK5Eigen8symbolic8BaseExprINS0_10SymbolExprINS_8internal17symbolic_last_tagEEEEplILi1EEENS0_7AddExprIS5_NS0_9ValueExprINS3_8FixedIntIXT_EEEEEEESB_ = comdat any

$_ZNK5Eigen8internal8FixedIntILi1EEclEv = comdat any

$_ZN5Eigen8internal5all_tC2Ev = comdat any

$_ZN3igl8copyleft4cgal22delaunay_triangulationIN5Eigen6MatrixIdLin1ELin1ELi0ELin1ELin1EEENS4_IiLin1ELin1ELi0ELin1ELin1EEEEEvRKNS3_10MatrixBaseIT_EERNS3_15PlainObjectBaseIT0_EE = comdat any

$_ZN5Eigen8internal8FixedIntILi1EEC2Ev = comdat any

$_ZNK5Eigen8symbolic8BaseExprINS0_10SymbolExprINS_8internal17symbolic_last_tagEEEE7derivedEv = comdat any

$_ZN5Eigen8symbolic9ValueExprINS_8internal8FixedIntILi1EEEEC2Ev = comdat any

$_ZN5Eigen8symbolic7AddExprINS0_10SymbolExprINS_8internal17symbolic_last_tagEEENS0_9ValueExprINS3_8FixedIntILi1EEEEEEC2ERKS5_RKS9_ = comdat any

@_ZN5EigenL4lastE = internal global %"class.Eigen::symbolic::SymbolExpr" zeroinitializer, align 1
@_ZN5EigenL6lastp1E = internal global %"class.Eigen::symbolic::AddExpr" zeroinitializer, align 1
@_ZN5EigenL3fixILi1EEE = internal global %"class.Eigen::internal::FixedInt" zeroinitializer, align 1
@_ZN5EigenL3allE = internal global %"struct.Eigen::internal::all_t" zeroinitializer, align 1
@llvm.global_ctors = appending global [2 x { i32, ptr, ptr }] [{ i32, ptr, ptr } { i32 65535, ptr @__cxx_global_var_init.3, ptr null }, { i32, ptr, ptr } { i32 65535, ptr @_GLOBAL__sub_I_delaunay_triangulation.cpp, ptr null }]

; Function Attrs: uwtable
define internal void @__cxx_global_var_init() #0 section ".text.startup" {
  call void @_ZN5Eigen8symbolic10SymbolExprINS_8internal17symbolic_last_tagEEC2Ev(ptr noundef nonnull align 1 dereferenceable(1) @_ZN5EigenL4lastE)
  %1 = call ptr @llvm.invariant.start.p0(i64 1, ptr @_ZN5EigenL4lastE)
  ret void
}

; Function Attrs: mustprogress nounwind uwtable
define linkonce_odr dso_local void @_ZN5Eigen8symbolic10SymbolExprINS_8internal17symbolic_last_tagEEC2Ev(ptr noundef nonnull align 1 dereferenceable(1) %0) unnamed_addr #1 comdat align 2 {
  %2 = alloca ptr, align 8
  store ptr %0, ptr %2, align 8, !tbaa !4
  ret void
}

; Function Attrs: nocallback nofree nosync nounwind willreturn memory(argmem: readwrite)
declare ptr @llvm.invariant.start.p0(i64 immarg, ptr captures(none)) #2

; Function Attrs: uwtable
define internal void @__cxx_global_var_init.1() #0 section ".text.startup" {
  call void @_ZNK5Eigen8internal8FixedIntILi1EEclEv(ptr noundef nonnull align 1 dereferenceable(1) @_ZN5EigenL3fixILi1EEE)
  call void @_ZNK5Eigen8symbolic8BaseExprINS0_10SymbolExprINS_8internal17symbolic_last_tagEEEEplILi1EEENS0_7AddExprIS5_NS0_9ValueExprINS3_8FixedIntIXT_EEEEEEESB_(ptr noundef nonnull align 1 dereferenceable(1) @_ZN5EigenL4lastE)
  %1 = call ptr @llvm.invariant.start.p0(i64 2, ptr @_ZN5EigenL6lastp1E)
  ret void
}

; Function Attrs: mustprogress uwtable
define linkonce_odr dso_local void @_ZNK5Eigen8symbolic8BaseExprINS0_10SymbolExprINS_8internal17symbolic_last_tagEEEEplILi1EEENS0_7AddExprIS5_NS0_9ValueExprINS3_8FixedIntIXT_EEEEEEESB_(ptr noundef nonnull align 1 dereferenceable(1) %0) #3 comdat align 2 {
  %2 = alloca %"class.Eigen::symbolic::AddExpr", align 1
  %3 = alloca ptr, align 8
  %4 = alloca %"class.Eigen::symbolic::ValueExpr", align 1
  store ptr %0, ptr %3, align 8, !tbaa !9
  %5 = load ptr, ptr %3, align 8
  %6 = call noundef nonnull align 1 dereferenceable(1) ptr @_ZNK5Eigen8symbolic8BaseExprINS0_10SymbolExprINS_8internal17symbolic_last_tagEEEE7derivedEv(ptr noundef nonnull align 1 dereferenceable(1) %5)
  call void @llvm.lifetime.start.p0(i64 1, ptr %4) #5
  call void @_ZN5Eigen8symbolic9ValueExprINS_8internal8FixedIntILi1EEEEC2Ev(ptr noundef nonnull align 1 dereferenceable(1) %4)
  call void @_ZN5Eigen8symbolic7AddExprINS0_10SymbolExprINS_8internal17symbolic_last_tagEEENS0_9ValueExprINS3_8FixedIntILi1EEEEEEC2ERKS5_RKS9_(ptr noundef nonnull align 1 dereferenceable(2) %2, ptr noundef nonnull align 1 dereferenceable(1) %6, ptr noundef nonnull align 1 dereferenceable(1) %4)
  call void @llvm.lifetime.end.p0(i64 1, ptr %4) #5
  ret void
}

; Function Attrs: mustprogress nounwind uwtable
define linkonce_odr dso_local void @_ZNK5Eigen8internal8FixedIntILi1EEclEv(ptr noundef nonnull align 1 dereferenceable(1) %0) #1 comdat align 2 {
  %2 = alloca ptr, align 8
  store ptr %0, ptr %2, align 8, !tbaa !11
  ret void
}

; Function Attrs: uwtable
define internal void @__cxx_global_var_init.2() #0 section ".text.startup" {
  call void @_ZN5Eigen8internal5all_tC2Ev(ptr noundef nonnull align 1 dereferenceable(1) @_ZN5EigenL3allE)
  %1 = call ptr @llvm.invariant.start.p0(i64 1, ptr @_ZN5EigenL3allE)
  ret void
}

; Function Attrs: mustprogress nounwind uwtable
define linkonce_odr dso_local void @_ZN5Eigen8internal5all_tC2Ev(ptr noundef nonnull align 1 dereferenceable(1) %0) unnamed_addr #1 comdat align 2 {
  %2 = alloca ptr, align 8
  store ptr %0, ptr %2, align 8, !tbaa !13
  ret void
}

; Function Attrs: mustprogress uwtable
define weak_odr dso_local void @_ZN3igl8copyleft4cgal22delaunay_triangulationIN5Eigen6MatrixIdLin1ELin1ELi0ELin1ELin1EEENS4_IiLin1ELin1ELi0ELin1ELin1EEEEEvRKNS3_10MatrixBaseIT_EERNS3_15PlainObjectBaseIT0_EE(ptr noundef nonnull align 1 dereferenceable(1) %0, ptr noundef nonnull align 1 %1) #3 comdat {
  %3 = alloca ptr, align 8
  %4 = alloca ptr, align 8
  store ptr %0, ptr %3, align 8, !tbaa !15
  store ptr %1, ptr %4, align 8, !tbaa !17
  %5 = load ptr, ptr %3, align 8, !tbaa !15
  %6 = load ptr, ptr %4, align 8, !tbaa !17
  call void @_ZN3igl22delaunay_triangulationIN5Eigen6MatrixIdLin1ELin1ELi0ELin1ELin1EEEPFsPKdS5_S5_EPFsS5_S5_S5_S5_ENS2_IiLin1ELin1ELi0ELin1ELin1EEEEEvRKNS1_10MatrixBaseIT_EET0_T1_RNS1_15PlainObjectBaseIT2_EE(ptr noundef nonnull align 1 dereferenceable(1) %5, ptr noundef @_ZN3igl8copyleft4cgal8orient2DIdEEsPKT_S5_S5_, ptr noundef @_ZN3igl8copyleft4cgal8incircleIdEEsPKT_S5_S5_S5_, ptr noundef nonnull align 1 %6)
  ret void
}

declare void @_ZN3igl22delaunay_triangulationIN5Eigen6MatrixIdLin1ELin1ELi0ELin1ELin1EEEPFsPKdS5_S5_EPFsS5_S5_S5_S5_ENS2_IiLin1ELin1ELi0ELin1ELin1EEEEEvRKNS1_10MatrixBaseIT_EET0_T1_RNS1_15PlainObjectBaseIT2_EE(ptr noundef nonnull align 1 dereferenceable(1), ptr noundef, ptr noundef, ptr noundef nonnull align 1) #4

declare noundef signext i16 @_ZN3igl8copyleft4cgal8orient2DIdEEsPKT_S5_S5_(ptr noundef, ptr noundef, ptr noundef) #4

declare noundef signext i16 @_ZN3igl8copyleft4cgal8incircleIdEEsPKT_S5_S5_S5_(ptr noundef, ptr noundef, ptr noundef, ptr noundef) #4

; Function Attrs: uwtable
define internal void @__cxx_global_var_init.3() #0 section ".text.startup" {
  call void @_ZN5Eigen8internal8FixedIntILi1EEC2Ev(ptr noundef nonnull align 1 dereferenceable(1) @_ZN5EigenL3fixILi1EEE)
  %1 = call ptr @llvm.invariant.start.p0(i64 1, ptr @_ZN5EigenL3fixILi1EEE)
  ret void
}

; Function Attrs: mustprogress nounwind uwtable
define linkonce_odr dso_local void @_ZN5Eigen8internal8FixedIntILi1EEC2Ev(ptr noundef nonnull align 1 dereferenceable(1) %0) unnamed_addr #1 comdat align 2 {
  %2 = alloca ptr, align 8
  store ptr %0, ptr %2, align 8, !tbaa !11
  ret void
}

; Function Attrs: mustprogress nounwind uwtable
define linkonce_odr dso_local noundef nonnull align 1 dereferenceable(1) ptr @_ZNK5Eigen8symbolic8BaseExprINS0_10SymbolExprINS_8internal17symbolic_last_tagEEEE7derivedEv(ptr noundef nonnull align 1 dereferenceable(1) %0) #1 comdat align 2 {
  %2 = alloca ptr, align 8
  store ptr %0, ptr %2, align 8, !tbaa !9
  %3 = load ptr, ptr %2, align 8
  ret ptr %3
}

; Function Attrs: nocallback nofree nosync nounwind willreturn memory(argmem: readwrite)
declare void @llvm.lifetime.start.p0(i64 immarg, ptr captures(none)) #2

; Function Attrs: mustprogress nounwind uwtable
define linkonce_odr dso_local void @_ZN5Eigen8symbolic9ValueExprINS_8internal8FixedIntILi1EEEEC2Ev(ptr noundef nonnull align 1 dereferenceable(1) %0) unnamed_addr #1 comdat align 2 {
  %2 = alloca ptr, align 8
  store ptr %0, ptr %2, align 8, !tbaa !19
  ret void
}

; Function Attrs: mustprogress nounwind uwtable
define linkonce_odr dso_local void @_ZN5Eigen8symbolic7AddExprINS0_10SymbolExprINS_8internal17symbolic_last_tagEEENS0_9ValueExprINS3_8FixedIntILi1EEEEEEC2ERKS5_RKS9_(ptr noundef nonnull align 1 dereferenceable(2) %0, ptr noundef nonnull align 1 dereferenceable(1) %1, ptr noundef nonnull align 1 dereferenceable(1) %2) unnamed_addr #1 comdat align 2 {
  %4 = alloca ptr, align 8
  %5 = alloca ptr, align 8
  %6 = alloca ptr, align 8
  store ptr %0, ptr %4, align 8, !tbaa !21
  store ptr %1, ptr %5, align 8, !tbaa !4
  store ptr %2, ptr %6, align 8, !tbaa !19
  ret void
}

; Function Attrs: nocallback nofree nosync nounwind willreturn memory(argmem: readwrite)
declare void @llvm.lifetime.end.p0(i64 immarg, ptr captures(none)) #2

; Function Attrs: uwtable
define internal void @_GLOBAL__sub_I_delaunay_triangulation.cpp() #0 section ".text.startup" {
  call void @__cxx_global_var_init()
  call void @__cxx_global_var_init.1()
  call void @__cxx_global_var_init.2()
  ret void
}


!llvm.module.flags = !{!0, !1, !2, !3}

!0 = !{i32 1, !"wchar_size", i32 4}
!1 = !{i32 8, !"PIC Level", i32 2}
!2 = !{i32 7, !"PIE Level", i32 2}
!3 = !{i32 7, !"uwtable", i32 2}
!4 = !{!5, !5, i64 0}
!5 = !{!"p1 _ZTSN5Eigen8symbolic10SymbolExprINS_8internal17symbolic_last_tagEEE", !6, i64 0}
!6 = !{!"any pointer", !7, i64 0}
!7 = !{!"omnipotent char", !8, i64 0}
!8 = !{!"Simple C++ TBAA"}
!9 = !{!10, !10, i64 0}
!10 = !{!"p1 _ZTSN5Eigen8symbolic8BaseExprINS0_10SymbolExprINS_8internal17symbolic_last_tagEEEEE", !6, i64 0}
!11 = !{!12, !12, i64 0}
!12 = !{!"p1 _ZTSN5Eigen8internal8FixedIntILi1EEE", !6, i64 0}
!13 = !{!14, !14, i64 0}
!14 = !{!"p1 _ZTSN5Eigen8internal5all_tE", !6, i64 0}
!15 = !{!16, !16, i64 0}
!16 = !{!"p1 _ZTSN5Eigen10MatrixBaseINS_6MatrixIdLin1ELin1ELi0ELin1ELin1EEEEE", !6, i64 0}
!17 = !{!18, !18, i64 0}
!18 = !{!"p1 _ZTSN5Eigen15PlainObjectBaseINS_6MatrixIiLin1ELin1ELi0ELin1ELin1EEEEE", !6, i64 0}
!19 = !{!20, !20, i64 0}
!20 = !{!"p1 _ZTSN5Eigen8symbolic9ValueExprINS_8internal8FixedIntILi1EEEEE", !6, i64 0}
!21 = !{!22, !22, i64 0}
!22 = !{!"p1 _ZTSN5Eigen8symbolic7AddExprINS0_10SymbolExprINS_8internal17symbolic_last_tagEEENS0_9ValueExprINS3_8FixedIntILi1EEEEEEE", !6, i64 0}
